; ModuleID = '50/234.c'
source_filename = "50/234.c"
target datalayout = "e-m:e-p270:32:32-p271:32:32-p272:64:64-i64:64-f80:128-n8:16:32:64-S128"
target triple = "x86_64-pc-linux-gnu"

@__const.main.a = private unnamed_addr constant [12 x i32] [i32 13, i32 44, i32 72, i32 103, i32 133, i32 164, i32 194, i32 225, i32 256, i32 286, i32 317, i32 347], align 16
@.str = private unnamed_addr constant [3 x i8] c"%d\00", align 1
@.str.1 = private unnamed_addr constant [4 x i8] c"%d\0A\00", align 1

; Function Attrs: noinline nounwind uwtable
define dso_local void @main() #0 {
  %1 = alloca i32, align 4
  %2 = alloca i32, align 4
  %3 = alloca i32, align 4
  %4 = alloca [12 x i32], align 16
  %5 = bitcast [12 x i32]* %4 to i8*
  call void @llvm.memcpy.p0i8.p0i8.i64(i8* align 16 %5, i8* align 16 bitcast ([12 x i32]* @__const.main.a to i8*), i64 48, i1 false)
  %6 = call i32 (i8*, ...) @__isoc99_scanf(i8* getelementptr inbounds ([3 x i8], [3 x i8]* @.str, i64 0, i64 0), i32* %1)
  store i32 0, i32* %2, align 4
  br label %7

7:                                                ; preds = %43, %0
  %8 = load i32, i32* %2, align 4
  %9 = icmp slt i32 %8, 12
  br i1 %9, label %10, label %46

10:                                               ; preds = %7
  %11 = load i32, i32* %2, align 4
  %12 = sext i32 %11 to i64
  %13 = getelementptr inbounds [12 x i32], [12 x i32]* %4, i64 0, i64 %12
  %14 = load i32, i32* %13, align 4
  %15 = srem i32 %14, 7
  store i32 %15, i32* %3, align 4
  %16 = load i32, i32* %3, align 4
  %17 = load i32, i32* %1, align 4
  %18 = add nsw i32 %16, %17
  %19 = icmp sle i32 %18, 8
  br i1 %19, label %20, label %26

20:                                               ; preds = %10
  %21 = load i32, i32* %3, align 4
  %22 = load i32, i32* %1, align 4
  %23 = add nsw i32 %21, %22
  %24 = sub nsw i32 %23, 1
  %25 = icmp eq i32 %24, 5
  br i1 %25, label %38, label %26

26:                                               ; preds = %20, %10
  %27 = load i32, i32* %3, align 4
  %28 = load i32, i32* %1, align 4
  %29 = add nsw i32 %27, %28
  %30 = icmp sgt i32 %29, 8
  br i1 %30, label %31, label %42

31:                                               ; preds = %26
  %32 = load i32, i32* %3, align 4
  %33 = load i32, i32* %1, align 4
  %34 = add nsw i32 %32, %33
  %35 = sub nsw i32 %34, 7
  %36 = sub nsw i32 %35, 1
  %37 = icmp eq i32 %36, 5
  br i1 %37, label %38, label %42

38:                                               ; preds = %31, %20
  %39 = load i32, i32* %2, align 4
  %40 = add nsw i32 %39, 1
  %41 = call i32 (i8*, ...) @printf(i8* getelementptr inbounds ([4 x i8], [4 x i8]* @.str.1, i64 0, i64 0), i32 %40)
  br label %42

42:                                               ; preds = %38, %31, %26
  br label %43

43:                                               ; preds = %42
  %44 = load i32, i32* %2, align 4
  %45 = add nsw i32 %44, 1
  store i32 %45, i32* %2, align 4
  br label %7

46:                                               ; preds = %7
  ret void
}

; Function Attrs: argmemonly nounwind willreturn
declare void @llvm.memcpy.p0i8.p0i8.i64(i8* noalias nocapture writeonly, i8* noalias nocapture readonly, i64, i1 immarg) #1

declare dso_local i32 @__isoc99_scanf(i8*, ...) #2

declare dso_local i32 @printf(i8*, ...) #2


!llvm.module.flags = !{!0}
!llvm.ident = !{!1}

!0 = !{i32 1, !"wchar_size", i32 4}
!1 = !{!"clang version 10.0.0-4ubuntu1 "}
